target datalayout = "e-m:e-p270:32:32-p271:32:32-p272:64:64-i64:64-i128:128-f80:128-n8:16:32:64-S128"
target triple = "x86_64-unknown-linux-gnu"

; Function Attrs: mustprogress nounwind uwtable
define hidden noundef i32 @_ZN4llvh18getNumBytesForUTF8Eh(i8 noundef zeroext %first) #0 {
entry:
  %first.addr = alloca i8, align 1
  store i8 %first, ptr %first.addr, align 1
  %0 = load i8, ptr %first.addr, align 1
  %idxprom = zext i8 %0 to i64
  %arrayidx = getelementptr inbounds [256 x i8], ptr @_ZN4llvhL20trailingBytesForUTF8E, i64 0, i64 %idxprom
  %1 = load i8, ptr %arrayidx, align 1
  %conv = sext i8 %1 to i32
  %add = add nsw i32 %conv, 1
  ret i32 %add
}