; Function Attrs: mustprogress nofree norecurse nosync nounwind willreturn memory(none) uwtable
define hidden noundef range(i32 -127, 129) i32 @_ZN4llvh18getNumBytesForUTF8Eh(i8 noundef zeroext %first) local_unnamed_addr #2 {
entry:
  %idxprom = zext i8 %first to i64
  %arrayidx = getelementptr inbounds nuw [256 x i8], ptr @_ZN4llvhL20trailingBytesForUTF8E, i64 0, i64 %idxprom
  %0 = load i8, ptr %arrayidx, align 1
  %conv = sext i8 %0 to i32
  %add = add nsw i32 %conv, 1
  ret i32 %add
}